target datalayout = "e-m:e-p270:32:32-p271:32:32-p272:64:64-i64:64-i128:128-f80:128-n8:16:32:64-S128"
target triple = "x86_64-pc-linux-gnu"

%class.JvmtiDeferredEvent = type { i32, %union.anon.8 }
%union.anon.8 = type { %struct.anon.10 }
%struct.anon.10 = type { ptr, ptr, ptr }
%class.JvmtiDeferredEventQueue = type { ptr, ptr }
%"class.JvmtiDeferredEventQueue::QueueNode" = type { %class.JvmtiDeferredEvent, ptr }

; Function Attrs: mustprogress nounwind uwtable
define linkonce_odr hidden void @_ZN12CHeapObjBasedlEPv(ptr noundef %0) #1 comdat align 2 {
  %2 = alloca ptr, align 8
  store ptr %0, ptr %2, align 8
  %3 = load ptr, ptr %2, align 8
  call void @_Z8FreeHeapPv(ptr noundef %3)
  ret void
}

; Function Attrs: mustprogress nounwind uwtable
define linkonce_odr hidden void @_ZN8CHeapObjIL8MEMFLAGS9EEdlEPv(ptr noundef %0) #1 comdat align 2 {
  %2 = alloca ptr, align 8
  store ptr %0, ptr %2, align 8
  %3 = load ptr, ptr %2, align 8
  call void @_ZN12CHeapObjBasedlEPv(ptr noundef %3) #10
  ret void
}

; Function Attrs: mustprogress nounwind uwtable
define linkonce_odr hidden noundef ptr @_ZNK23JvmtiDeferredEventQueue9QueueNode4nextEv(ptr noundef nonnull align 8 dereferenceable(40) %0) #1 comdat align 2 {
  %2 = alloca ptr, align 8
  store ptr %0, ptr %2, align 8
  %3 = load ptr, ptr %2, align 8
  %4 = getelementptr inbounds %"class.JvmtiDeferredEventQueue::QueueNode", ptr %3, i32 0, i32 1
  %5 = load ptr, ptr %4, align 8
  ret ptr %5
}

; Function Attrs: mustprogress nounwind uwtable
define linkonce_odr hidden void @_ZN18JvmtiDeferredEventC2Ev(ptr noundef nonnull align 8 dereferenceable(32) %0) unnamed_addr #1 comdat align 2 {
  %2 = alloca ptr, align 8
  store ptr %0, ptr %2, align 8
  %3 = load ptr, ptr %2, align 8
  %4 = getelementptr inbounds %class.JvmtiDeferredEvent, ptr %3, i32 0, i32 0
  store i32 0, ptr %4, align 8
  ret void
}

; Function Attrs: mustprogress nounwind uwtable
define hidden void @_ZN23JvmtiDeferredEventQueue7dequeueEv(ptr dead_on_unwind noalias writable sret(%class.JvmtiDeferredEvent) align 8 %0, ptr noundef nonnull align 8 dereferenceable(16) %1) #1 align 2 {
  %3 = alloca ptr, align 8
  %4 = alloca ptr, align 8
  store ptr %1, ptr %3, align 8
  %5 = load ptr, ptr %3, align 8
  %6 = getelementptr inbounds %class.JvmtiDeferredEventQueue, ptr %5, i32 0, i32 0
  %7 = load ptr, ptr %6, align 8
  %8 = icmp eq ptr %7, null
  br i1 %8, label %9, label %10

9:                                                ; preds = %2
  call void @_ZN18JvmtiDeferredEventC2Ev(ptr noundef nonnull align 8 dereferenceable(32) %0)
  br label %29

10:                                               ; preds = %2
  %11 = getelementptr inbounds %class.JvmtiDeferredEventQueue, ptr %5, i32 0, i32 0
  %12 = load ptr, ptr %11, align 8
  store ptr %12, ptr %4, align 8
  %13 = getelementptr inbounds %class.JvmtiDeferredEventQueue, ptr %5, i32 0, i32 0
  %14 = load ptr, ptr %13, align 8
  %15 = call noundef ptr @_ZNK23JvmtiDeferredEventQueue9QueueNode4nextEv(ptr noundef nonnull align 8 dereferenceable(40) %14)
  %16 = getelementptr inbounds %class.JvmtiDeferredEventQueue, ptr %5, i32 0, i32 0
  store ptr %15, ptr %16, align 8
  %17 = getelementptr inbounds %class.JvmtiDeferredEventQueue, ptr %5, i32 0, i32 0
  %18 = load ptr, ptr %17, align 8
  %19 = icmp eq ptr %18, null
  br i1 %19, label %20, label %22

20:                                               ; preds = %10
  %21 = getelementptr inbounds %class.JvmtiDeferredEventQueue, ptr %5, i32 0, i32 1
  store ptr null, ptr %21, align 8
  br label %22

22:                                               ; preds = %20, %10
  %23 = load ptr, ptr %4, align 8
  %24 = call noundef nonnull align 8 dereferenceable(32) ptr @_ZN23JvmtiDeferredEventQueue9QueueNode5eventEv(ptr noundef nonnull align 8 dereferenceable(40) %23)
  call void @llvm.memcpy.p0.p0.i64(ptr align 8 %0, ptr align 8 %24, i64 32, i1 false)
  %25 = load ptr, ptr %4, align 8
  %26 = icmp eq ptr %25, null
  br i1 %26, label %28, label %27

27:                                               ; preds = %22
  call void @_ZN8CHeapObjIL8MEMFLAGS9EEdlEPv(ptr noundef %25) #10
  br label %28

28:                                               ; preds = %27, %22
  br label %29

29:                                               ; preds = %28, %9
  ret void
}

; Function Attrs: mustprogress nounwind uwtable
define hidden void @_ZN18JvmtiDeferredEvent31post_compiled_method_load_eventEP8JvmtiEnv(ptr noundef nonnull align 8 dereferenceable(32) %0, ptr noundef %1) #1 align 2 {
  %3 = alloca ptr, align 8
  %4 = alloca ptr, align 8
  %5 = alloca ptr, align 8
  store ptr %0, ptr %3, align 8
  store ptr %1, ptr %4, align 8
  %6 = load ptr, ptr %3, align 8
  %7 = getelementptr inbounds %class.JvmtiDeferredEvent, ptr %6, i32 0, i32 1
  %8 = load ptr, ptr %7, align 8
  store ptr %8, ptr %5, align 8
  %9 = load ptr, ptr %4, align 8
  %10 = load ptr, ptr %5, align 8
  call void @_ZN11JvmtiExport25post_compiled_method_loadEP8JvmtiEnvP7nmethod(ptr noundef %9, ptr noundef %10)
  ret void
}

; Function Attrs: mustprogress nounwind uwtable
define linkonce_odr hidden noundef nonnull align 8 dereferenceable(32) ptr @_ZN23JvmtiDeferredEventQueue9QueueNode5eventEv(ptr noundef nonnull align 8 dereferenceable(40) %0) #1 comdat align 2 {
  %2 = alloca ptr, align 8
  store ptr %0, ptr %2, align 8
  %3 = load ptr, ptr %2, align 8
  %4 = getelementptr inbounds %"class.JvmtiDeferredEventQueue::QueueNode", ptr %3, i32 0, i32 0
  ret ptr %4
}

; Function Attrs: mustprogress nounwind uwtable
define hidden void @_ZN23JvmtiDeferredEventQueue4postEP8JvmtiEnv(ptr noundef nonnull align 8 dereferenceable(16) %0, ptr noundef %1) #1 align 2 {
  %3 = alloca ptr, align 8
  %4 = alloca ptr, align 8
  %5 = alloca %class.JvmtiDeferredEvent, align 8
  store ptr %0, ptr %3, align 8
  store ptr %1, ptr %4, align 8
  %6 = load ptr, ptr %3, align 8
  br label %7

7:                                                ; preds = %11, %2
  %8 = getelementptr inbounds %class.JvmtiDeferredEventQueue, ptr %6, i32 0, i32 0
  %9 = load ptr, ptr %8, align 8
  %10 = icmp ne ptr %9, null
  br i1 %10, label %11, label %16

11:                                               ; preds = %7
  %12 = getelementptr inbounds %class.JvmtiDeferredEventQueue, ptr %6, i32 0, i32 0
  %13 = load ptr, ptr %12, align 8
  %14 = call noundef nonnull align 8 dereferenceable(32) ptr @_ZN23JvmtiDeferredEventQueue9QueueNode5eventEv(ptr noundef nonnull align 8 dereferenceable(40) %13)
  %15 = load ptr, ptr %4, align 8
  call void @_ZN18JvmtiDeferredEvent31post_compiled_method_load_eventEP8JvmtiEnv(ptr noundef nonnull align 8 dereferenceable(32) %14, ptr noundef %15)
  call void @_ZN23JvmtiDeferredEventQueue7dequeueEv(ptr dead_on_unwind writable sret(%class.JvmtiDeferredEvent) align 8 %5, ptr noundef nonnull align 8 dereferenceable(16) %6)
  br label %7, !llvm.loop !21

16:                                               ; preds = %7
  ret void
}