; Function Attrs: mustprogress nounwind uwtable
define hidden void @_ZN23JvmtiDeferredEventQueue4postEP8JvmtiEnv(ptr nocapture noundef nonnull align 8 dereferenceable(16) %0, ptr noundef %1) local_unnamed_addr #0 align 2 {
  %3 = load ptr, ptr %0, align 8
  %.not2 = icmp eq ptr %3, null
  br i1 %.not2, label %._crit_edge, label %.lr.ph

.lr.ph:                                           ; preds = %2
  %4 = getelementptr inbounds i8, ptr %0, i64 8
  br label %5

5:                                                ; preds = %.lr.ph, %_ZN23JvmtiDeferredEventQueue7dequeueEv.exit
  %6 = phi ptr [ %3, %.lr.ph ], [ %.pre, %_ZN23JvmtiDeferredEventQueue7dequeueEv.exit ]
  %7 = getelementptr inbounds i8, ptr %6, i64 8
  %8 = load ptr, ptr %7, align 8
  tail call void @_ZN11JvmtiExport25post_compiled_method_loadEP8JvmtiEnvP7nmethod(ptr noundef %1, ptr noundef %8) #17
  %9 = load ptr, ptr %0, align 8
  %10 = icmp eq ptr %9, null
  br i1 %10, label %._crit_edge, label %11

11:                                               ; preds = %5
  %12 = getelementptr inbounds i8, ptr %9, i64 32
  %13 = load ptr, ptr %12, align 8, !noalias !31
  store ptr %13, ptr %0, align 8, !noalias !31
  %14 = icmp eq ptr %13, null
  br i1 %14, label %15, label %_ZN23JvmtiDeferredEventQueue7dequeueEv.exit

15:                                               ; preds = %11
  store ptr null, ptr %4, align 8, !noalias !31
  br label %_ZN23JvmtiDeferredEventQueue7dequeueEv.exit

_ZN23JvmtiDeferredEventQueue7dequeueEv.exit:      ; preds = %11, %15
  tail call void @_Z8FreeHeapPv(ptr noundef nonnull %9) #17, !noalias !31
  %.pre = load ptr, ptr %0, align 8
  %.not = icmp eq ptr %.pre, null
  br i1 %.not, label %._crit_edge, label %5, !llvm.loop !34

._crit_edge:                                      ; preds = %5, %_ZN23JvmtiDeferredEventQueue7dequeueEv.exit, %2
  ret void
}